target datalayout = "e-m:e-p270:32:32-p271:32:32-p272:64:64-i64:64-i128:128-f80:128-n8:16:32:64-S128"
target triple = "x86_64-unknown-linux-gnu"

%"class.std::vector.47" = type { %"struct.std::_Vector_base.48" }
%"struct.std::_Vector_base.48" = type { %"struct.std::_Vector_base<unsigned long, std::allocator<unsigned long>>::_Vector_impl" }
%"struct.std::_Vector_base<unsigned long, std::allocator<unsigned long>>::_Vector_impl" = type { %"struct.std::_Vector_base<unsigned long, std::allocator<unsigned long>>::_Vector_impl_data" }
%"struct.std::_Vector_base<unsigned long, std::allocator<unsigned long>>::_Vector_impl_data" = type { ptr, ptr, ptr }
%class.anon.185 = type { ptr, ptr, ptr, ptr, ptr, ptr }
%"struct.std::_Vector_base.160" = type { %"struct.std::_Vector_base<int, std::allocator<int>>::_Vector_impl" }
%"struct.std::_Vector_base<int, std::allocator<int>>::_Vector_impl" = type { %"struct.std::_Vector_base<int, std::allocator<int>>::_Vector_impl_data" }
%"struct.std::_Vector_base<int, std::allocator<int>>::_Vector_impl_data" = type { ptr, ptr, ptr }
%"class.facebook::velox::DecodedVector" = type { i32, ptr, ptr, ptr, %"class.std::optional.177", ptr, i8, i8, i8, i8, i8, i32, %"class.std::vector.159", %"class.std::vector.47" }
%"class.std::optional.177" = type { %"struct.std::_Optional_base.178" }
%"struct.std::_Optional_base.178" = type { %"struct.std::_Optional_payload.180" }
%"struct.std::_Optional_payload.180" = type { %"struct.std::_Optional_payload_base.base.182", [7 x i8] }
%"struct.std::_Optional_payload_base.base.182" = type <{ %"union.std::_Optional_payload_base<const unsigned long *>::_Storage", i8 }>
%"union.std::_Optional_payload_base<const unsigned long *>::_Storage" = type { ptr }
%"class.std::vector.159" = type { %"struct.std::_Vector_base.160" }

@_ZN8facebook5velox4bitsL13kZeroBitmasksE = internal constant [8 x i8] c"\FE\FD\FB\F7\EF\DF\BF\7F", align 1

; Function Attrs: mustprogress nounwind uwtable
define linkonce_odr void @_ZSt9__fill_a1IPiiEN9__gnu_cxx11__enable_ifIXsr11__is_scalarIT0_EE7__valueEvE6__typeET_S6_RKS3_(ptr noundef %__first, ptr noundef %__last, ptr noundef nonnull align 4 dereferenceable(4) %__value) #2 comdat {
entry:
  %__first.addr = alloca ptr, align 8
  %__last.addr = alloca ptr, align 8
  %__value.addr = alloca ptr, align 8
  %__tmp = alloca i32, align 4
  store ptr %__first, ptr %__first.addr, align 8
  store ptr %__last, ptr %__last.addr, align 8
  store ptr %__value, ptr %__value.addr, align 8
  %0 = load ptr, ptr %__value.addr, align 8
  %1 = load i32, ptr %0, align 4
  store i32 %1, ptr %__tmp, align 4
  br label %for.cond

for.cond:                                         ; preds = %for.inc, %entry
  %2 = load ptr, ptr %__first.addr, align 8
  %3 = load ptr, ptr %__last.addr, align 8
  %cmp = icmp ne ptr %2, %3
  br i1 %cmp, label %for.body, label %for.end

for.body:                                         ; preds = %for.cond
  %4 = load i32, ptr %__tmp, align 4
  %5 = load ptr, ptr %__first.addr, align 8
  store i32 %4, ptr %5, align 4
  br label %for.inc

for.inc:                                          ; preds = %for.body
  %6 = load ptr, ptr %__first.addr, align 8
  %incdec.ptr = getelementptr inbounds i32, ptr %6, i32 1
  store ptr %incdec.ptr, ptr %__first.addr, align 8
  br label %for.cond, !llvm.loop !18

for.end:                                          ; preds = %for.cond
  ret void
}

; Function Attrs: mustprogress nounwind uwtable
define linkonce_odr noundef zeroext i1 @_ZN8facebook5velox4bits8isBitSetImEEbPKT_i(ptr noundef %bits, i32 noundef %idx) #2 comdat {
entry:
  %bits.addr = alloca ptr, align 8
  %idx.addr = alloca i32, align 4
  store ptr %bits, ptr %bits.addr, align 8
  store i32 %idx, ptr %idx.addr, align 4
  %0 = load ptr, ptr %bits.addr, align 8
  %1 = load i32, ptr %idx.addr, align 4
  %conv = sext i32 %1 to i64
  %div = udiv i64 %conv, 64
  %arrayidx = getelementptr inbounds i64, ptr %0, i64 %div
  %2 = load i64, ptr %arrayidx, align 8
  %3 = load i32, ptr %idx.addr, align 4
  %conv1 = sext i32 %3 to i64
  %and = and i64 %conv1, 63
  %shl = shl i64 1, %and
  %and2 = and i64 %2, %shl
  %tobool = icmp ne i64 %and2, 0
  ret i1 %tobool
}

; Function Attrs: mustprogress uwtable
define linkonce_odr void @_ZSt8__fill_aIPiiEvT_S1_RKT0_(ptr noundef %__first, ptr noundef %__last, ptr noundef nonnull align 4 dereferenceable(4) %__value) #0 comdat {
entry:
  %__first.addr = alloca ptr, align 8
  %__last.addr = alloca ptr, align 8
  %__value.addr = alloca ptr, align 8
  store ptr %__first, ptr %__first.addr, align 8
  store ptr %__last, ptr %__last.addr, align 8
  store ptr %__value, ptr %__value.addr, align 8
  %0 = load ptr, ptr %__first.addr, align 8
  %1 = load ptr, ptr %__last.addr, align 8
  %2 = load ptr, ptr %__value.addr, align 8
  call void @_ZSt9__fill_a1IPiiEN9__gnu_cxx11__enable_ifIXsr11__is_scalarIT0_EE7__valueEvE6__typeET_S6_RKS3_(ptr noundef %0, ptr noundef %1, ptr noundef nonnull align 4 dereferenceable(4) %2)
  ret void
}

; Function Attrs: mustprogress nounwind uwtable
define linkonce_odr noundef i32 @_ZNK8facebook5velox13DecodedVector5indexEi(ptr noundef nonnull align 8 dereferenceable(120) %this, i32 noundef %idx) #2 comdat align 2 {
entry:
  %retval = alloca i32, align 4
  %this.addr = alloca ptr, align 8
  %idx.addr = alloca i32, align 4
  store ptr %this, ptr %this.addr, align 8
  store i32 %idx, ptr %idx.addr, align 4
  %this1 = load ptr, ptr %this.addr, align 8
  %isIdentityMapping_ = getelementptr inbounds %"class.facebook::velox::DecodedVector", ptr %this1, i32 0, i32 8
  %0 = load i8, ptr %isIdentityMapping_, align 2
  %tobool = trunc i8 %0 to i1
  br i1 %tobool, label %if.then, label %if.end

if.then:                                          ; preds = %entry
  %1 = load i32, ptr %idx.addr, align 4
  store i32 %1, ptr %retval, align 4
  br label %return

if.end:                                           ; preds = %entry
  %isConstantMapping_ = getelementptr inbounds %"class.facebook::velox::DecodedVector", ptr %this1, i32 0, i32 9
  %2 = load i8, ptr %isConstantMapping_, align 1
  %tobool2 = trunc i8 %2 to i1
  br i1 %tobool2, label %if.then3, label %if.end4

if.then3:                                         ; preds = %if.end
  %constantIndex_ = getelementptr inbounds %"class.facebook::velox::DecodedVector", ptr %this1, i32 0, i32 11
  %3 = load i32, ptr %constantIndex_, align 8
  store i32 %3, ptr %retval, align 4
  br label %return

if.end4:                                          ; preds = %if.end
  %indices_ = getelementptr inbounds %"class.facebook::velox::DecodedVector", ptr %this1, i32 0, i32 1
  %4 = load ptr, ptr %indices_, align 8
  %5 = load i32, ptr %idx.addr, align 4
  %idxprom = sext i32 %5 to i64
  %arrayidx = getelementptr inbounds i32, ptr %4, i64 %idxprom
  %6 = load i32, ptr %arrayidx, align 4
  store i32 %6, ptr %retval, align 4
  br label %return

return:                                           ; preds = %if.end4, %if.then3, %if.then
  %7 = load i32, ptr %retval, align 4
  ret i32 %7
}

; Function Attrs: mustprogress nounwind uwtable
define linkonce_odr void @_ZN8facebook5velox4bits8clearBitImEEvPT_j(ptr noundef %bits, i32 noundef %idx) #2 comdat {
entry:
  %bits.addr = alloca ptr, align 8
  %idx.addr = alloca i32, align 4
  %bitsAs8Bit = alloca ptr, align 8
  store ptr %bits, ptr %bits.addr, align 8
  store i32 %idx, ptr %idx.addr, align 4
  %0 = load ptr, ptr %bits.addr, align 8
  store ptr %0, ptr %bitsAs8Bit, align 8
  %1 = load i32, ptr %idx.addr, align 4
  %rem = urem i32 %1, 8
  %idxprom = zext i32 %rem to i64
  %arrayidx = getelementptr inbounds [8 x i8], ptr @_ZN8facebook5velox4bitsL13kZeroBitmasksE, i64 0, i64 %idxprom
  %2 = load i8, ptr %arrayidx, align 1
  %conv = zext i8 %2 to i32
  %3 = load ptr, ptr %bitsAs8Bit, align 8
  %4 = load i32, ptr %idx.addr, align 4
  %div = udiv i32 %4, 8
  %idxprom1 = zext i32 %div to i64
  %arrayidx2 = getelementptr inbounds i8, ptr %3, i64 %idxprom1
  %5 = load i8, ptr %arrayidx2, align 1
  %conv3 = zext i8 %5 to i32
  %and = and i32 %conv3, %conv
  %conv4 = trunc i32 %and to i8
  store i8 %conv4, ptr %arrayidx2, align 1
  ret void
}

; Function Attrs: mustprogress uwtable
define linkonce_odr noundef zeroext i1 @_ZN8facebook5velox4bits9isBitNullEPKmi(ptr noundef %bits, i32 noundef %index) #0 comdat {
entry:
  %bits.addr = alloca ptr, align 8
  %index.addr = alloca i32, align 4
  store ptr %bits, ptr %bits.addr, align 8
  store i32 %index, ptr %index.addr, align 4
  %0 = load ptr, ptr %bits.addr, align 8
  %1 = load i32, ptr %index.addr, align 4
  %call = call noundef zeroext i1 @_ZN8facebook5velox4bits8isBitSetImEEbPKT_i(ptr noundef %0, i32 noundef %1)
  %conv = zext i1 %call to i32
  %cmp = icmp eq i32 %conv, 0
  ret i1 %cmp
}

; Function Attrs: mustprogress uwtable
define linkonce_odr void @_ZSt4fillIPiiEvT_S1_RKT0_(ptr noundef %__first, ptr noundef %__last, ptr noundef nonnull align 4 dereferenceable(4) %__value) #0 comdat {
entry:
  %__first.addr = alloca ptr, align 8
  %__last.addr = alloca ptr, align 8
  %__value.addr = alloca ptr, align 8
  store ptr %__first, ptr %__first.addr, align 8
  store ptr %__last, ptr %__last.addr, align 8
  store ptr %__value, ptr %__value.addr, align 8
  %0 = load ptr, ptr %__first.addr, align 8
  %1 = load ptr, ptr %__last.addr, align 8
  %2 = load ptr, ptr %__value.addr, align 8
  call void @_ZSt8__fill_aIPiiEvT_S1_RKT0_(ptr noundef %0, ptr noundef %1, ptr noundef nonnull align 4 dereferenceable(4) %2)
  ret void
}

; Function Attrs: mustprogress uwtable
define linkonce_odr noundef i32 @_ZNK8facebook5velox13DecodedVector7valueAtIiEET_i(ptr noundef nonnull align 8 dereferenceable(120) %this, i32 noundef %idx) #0 comdat align 2 {
entry:
  %this.addr = alloca ptr, align 8
  %idx.addr = alloca i32, align 4
  store ptr %this, ptr %this.addr, align 8
  store i32 %idx, ptr %idx.addr, align 4
  %this1 = load ptr, ptr %this.addr, align 8
  %data_ = getelementptr inbounds %"class.facebook::velox::DecodedVector", ptr %this1, i32 0, i32 2
  %0 = load ptr, ptr %data_, align 8
  %1 = load i32, ptr %idx.addr, align 4
  %call = call noundef i32 @_ZNK8facebook5velox13DecodedVector5indexEi(ptr noundef nonnull align 8 dereferenceable(120) %this1, i32 noundef %1)
  %idxprom = sext i32 %call to i64
  %arrayidx = getelementptr inbounds i32, ptr %0, i64 %idxprom
  %2 = load i32, ptr %arrayidx, align 4
  ret i32 %2
}

; Function Attrs: mustprogress nounwind uwtable
define linkonce_odr void @_ZN8facebook5velox4bits7setNullEPmi(ptr noundef %bits, i32 noundef %index) #2 comdat {
entry:
  %bits.addr = alloca ptr, align 8
  %index.addr = alloca i32, align 4
  store ptr %bits, ptr %bits.addr, align 8
  store i32 %index, ptr %index.addr, align 4
  %0 = load ptr, ptr %bits.addr, align 8
  %1 = load i32, ptr %index.addr, align 4
  call void @_ZN8facebook5velox4bits8clearBitImEEvPT_j(ptr noundef %0, i32 noundef %1)
  ret void
}

; Function Attrs: mustprogress uwtable
define linkonce_odr noundef zeroext i1 @_ZNK8facebook5velox13DecodedVector8isNullAtEi(ptr noundef nonnull align 8 dereferenceable(120) %this, i32 noundef %idx) #0 comdat align 2 {
entry:
  %retval = alloca i1, align 1
  %this.addr = alloca ptr, align 8
  %idx.addr = alloca i32, align 4
  store ptr %this, ptr %this.addr, align 8
  store i32 %idx, ptr %idx.addr, align 4
  %this1 = load ptr, ptr %this.addr, align 8
  %nulls_ = getelementptr inbounds %"class.facebook::velox::DecodedVector", ptr %this1, i32 0, i32 3
  %0 = load ptr, ptr %nulls_, align 8
  %tobool = icmp ne ptr %0, null
  br i1 %tobool, label %if.end, label %if.then

if.then:                                          ; preds = %entry
  store i1 false, ptr %retval, align 1
  br label %return

if.end:                                           ; preds = %entry
  %isIdentityMapping_ = getelementptr inbounds %"class.facebook::velox::DecodedVector", ptr %this1, i32 0, i32 8
  %1 = load i8, ptr %isIdentityMapping_, align 2
  %tobool2 = trunc i8 %1 to i1
  br i1 %tobool2, label %if.then4, label %lor.lhs.false

lor.lhs.false:                                    ; preds = %if.end
  %hasExtraNulls_ = getelementptr inbounds %"class.facebook::velox::DecodedVector", ptr %this1, i32 0, i32 7
  %2 = load i8, ptr %hasExtraNulls_, align 1
  %tobool3 = trunc i8 %2 to i1
  br i1 %tobool3, label %if.then4, label %if.end6

if.then4:                                         ; preds = %lor.lhs.false, %if.end
  %nulls_5 = getelementptr inbounds %"class.facebook::velox::DecodedVector", ptr %this1, i32 0, i32 3
  %3 = load ptr, ptr %nulls_5, align 8
  %4 = load i32, ptr %idx.addr, align 4
  %call = call noundef zeroext i1 @_ZN8facebook5velox4bits9isBitNullEPKmi(ptr noundef %3, i32 noundef %4)
  store i1 %call, ptr %retval, align 1
  br label %return

if.end6:                                          ; preds = %lor.lhs.false
  %isConstantMapping_ = getelementptr inbounds %"class.facebook::velox::DecodedVector", ptr %this1, i32 0, i32 9
  %5 = load i8, ptr %isConstantMapping_, align 1
  %tobool7 = trunc i8 %5 to i1
  br i1 %tobool7, label %if.then8, label %if.end11

if.then8:                                         ; preds = %if.end6
  %nulls_9 = getelementptr inbounds %"class.facebook::velox::DecodedVector", ptr %this1, i32 0, i32 3
  %6 = load ptr, ptr %nulls_9, align 8
  %call10 = call noundef zeroext i1 @_ZN8facebook5velox4bits9isBitNullEPKmi(ptr noundef %6, i32 noundef 0)
  store i1 %call10, ptr %retval, align 1
  br label %return

if.end11:                                         ; preds = %if.end6
  %nulls_12 = getelementptr inbounds %"class.facebook::velox::DecodedVector", ptr %this1, i32 0, i32 3
  %7 = load ptr, ptr %nulls_12, align 8
  %indices_ = getelementptr inbounds %"class.facebook::velox::DecodedVector", ptr %this1, i32 0, i32 1
  %8 = load ptr, ptr %indices_, align 8
  %9 = load i32, ptr %idx.addr, align 4
  %idxprom = sext i32 %9 to i64
  %arrayidx = getelementptr inbounds i32, ptr %8, i64 %idxprom
  %10 = load i32, ptr %arrayidx, align 4
  %call13 = call noundef zeroext i1 @_ZN8facebook5velox4bits9isBitNullEPKmi(ptr noundef %7, i32 noundef %10)
  store i1 %call13, ptr %retval, align 1
  br label %return

return:                                           ; preds = %if.end11, %if.then8, %if.then4, %if.then
  %11 = load i1, ptr %retval, align 1
  ret i1 %11
}

; Function Attrs: mustprogress uwtable
define internal void @_ZZNK8facebook5velox9functions12_GLOBAL__N_114RepeatFunction9applyFlatERKNS0_17SelectivityVectorERSt6vectorISt10shared_ptrINS0_10BaseVectorEESaISA_EERKS8_IKNS0_4TypeEERNS0_4exec7EvalCtxEENKUlT_E0_clIiEEDaSM_(ptr noundef nonnull align 8 dereferenceable(48) %this, i32 noundef %row) #0 align 2 {
entry:
  %this.addr = alloca ptr, align 8
  %row.addr = alloca i32, align 4
  %count = alloca i32, align 4
  store ptr %this, ptr %this.addr, align 8
  store i32 %row, ptr %row.addr, align 4
  %this1 = load ptr, ptr %this.addr, align 8
  %0 = getelementptr inbounds %class.anon.185, ptr %this1, i32 0, i32 0
  %1 = load ptr, ptr %0, align 8
  %2 = load ptr, ptr %1, align 8
  %tobool = icmp ne ptr %2, null
  br i1 %tobool, label %land.lhs.true, label %if.end

land.lhs.true:                                    ; preds = %entry
  %3 = getelementptr inbounds %class.anon.185, ptr %this1, i32 0, i32 1
  %4 = load ptr, ptr %3, align 8
  %5 = load ptr, ptr %4, align 8
  %6 = load i32, ptr %row.addr, align 4
  %call = call noundef zeroext i1 @_ZNK8facebook5velox13DecodedVector8isNullAtEi(ptr noundef nonnull align 8 dereferenceable(120) %5, i32 noundef %6)
  br i1 %call, label %if.then, label %if.end

if.then:                                          ; preds = %land.lhs.true
  %7 = getelementptr inbounds %class.anon.185, ptr %this1, i32 0, i32 0
  %8 = load ptr, ptr %7, align 8
  %9 = load ptr, ptr %8, align 8
  %10 = load i32, ptr %row.addr, align 4
  call void @_ZN8facebook5velox4bits7setNullEPmi(ptr noundef %9, i32 noundef %10)
  br label %return

if.end:                                           ; preds = %land.lhs.true, %entry
  %11 = getelementptr inbounds %class.anon.185, ptr %this1, i32 0, i32 1
  %12 = load ptr, ptr %11, align 8
  %13 = load ptr, ptr %12, align 8
  %14 = load i32, ptr %row.addr, align 4
  %call2 = call noundef i32 @_ZNK8facebook5velox13DecodedVector7valueAtIiEET_i(ptr noundef nonnull align 8 dereferenceable(120) %13, i32 noundef %14)
  store i32 %call2, ptr %count, align 4
  %15 = load i32, ptr %count, align 4
  %16 = getelementptr inbounds %class.anon.185, ptr %this1, i32 0, i32 2
  %17 = load ptr, ptr %16, align 8
  %18 = load ptr, ptr %17, align 8
  %19 = load i32, ptr %row.addr, align 4
  %idxprom = sext i32 %19 to i64
  %arrayidx = getelementptr inbounds i32, ptr %18, i64 %idxprom
  store i32 %15, ptr %arrayidx, align 4
  %20 = getelementptr inbounds %class.anon.185, ptr %this1, i32 0, i32 4
  %21 = load ptr, ptr %20, align 8
  %22 = load i32, ptr %21, align 4
  %23 = getelementptr inbounds %class.anon.185, ptr %this1, i32 0, i32 3
  %24 = load ptr, ptr %23, align 8
  %25 = load ptr, ptr %24, align 8
  %26 = load i32, ptr %row.addr, align 4
  %idxprom3 = sext i32 %26 to i64
  %arrayidx4 = getelementptr inbounds i32, ptr %25, i64 %idxprom3
  store i32 %22, ptr %arrayidx4, align 4
  %27 = getelementptr inbounds %class.anon.185, ptr %this1, i32 0, i32 5
  %28 = load ptr, ptr %27, align 8
  %29 = load ptr, ptr %28, align 8
  %30 = getelementptr inbounds %class.anon.185, ptr %this1, i32 0, i32 4
  %31 = load ptr, ptr %30, align 8
  %32 = load i32, ptr %31, align 4
  %idx.ext = sext i32 %32 to i64
  %add.ptr = getelementptr inbounds i32, ptr %29, i64 %idx.ext
  %33 = getelementptr inbounds %class.anon.185, ptr %this1, i32 0, i32 5
  %34 = load ptr, ptr %33, align 8
  %35 = load ptr, ptr %34, align 8
  %36 = getelementptr inbounds %class.anon.185, ptr %this1, i32 0, i32 4
  %37 = load ptr, ptr %36, align 8
  %38 = load i32, ptr %37, align 4
  %idx.ext5 = sext i32 %38 to i64
  %add.ptr6 = getelementptr inbounds i32, ptr %35, i64 %idx.ext5
  %39 = load i32, ptr %count, align 4
  %idx.ext7 = sext i32 %39 to i64
  %add.ptr8 = getelementptr inbounds i32, ptr %add.ptr6, i64 %idx.ext7
  call void @_ZSt4fillIPiiEvT_S1_RKT0_(ptr noundef %add.ptr, ptr noundef %add.ptr8, ptr noundef nonnull align 4 dereferenceable(4) %row.addr)
  %40 = load i32, ptr %count, align 4
  %41 = getelementptr inbounds %class.anon.185, ptr %this1, i32 0, i32 4
  %42 = load ptr, ptr %41, align 8
  %43 = load i32, ptr %42, align 4
  %add = add nsw i32 %43, %40
  store i32 %add, ptr %42, align 4
  br label %return

return:                                           ; preds = %if.end, %if.then
  ret void
}