; Function Attrs: mustprogress nofree norecurse nosync nounwind memory(readwrite, inaccessiblemem: none) uwtable
define internal fastcc void @_ZZNK8facebook5velox9functions12_GLOBAL__N_114RepeatFunction9applyFlatERKNS0_17SelectivityVectorERSt6vectorISt10shared_ptrINS0_10BaseVectorEESaISA_EERKS8_IKNS0_4TypeEERNS0_4exec7EvalCtxEENKUlT_E0_clIiEEDaSM_(ptr nocapture noundef nonnull readonly align 8 dereferenceable(48) %this, i32 noundef %row) unnamed_addr #17 align 2 {
entry:
  %0 = load ptr, ptr %this, align 8
  %1 = load ptr, ptr %0, align 8
  %tobool.not = icmp eq ptr %1, null
  %.phi.trans.insert = getelementptr inbounds i8, ptr %this, i64 8
  %.pre = load ptr, ptr %.phi.trans.insert, align 8
  %.pre12 = load ptr, ptr %.pre, align 8
  br i1 %tobool.not, label %if.end, label %land.lhs.true

land.lhs.true:                                    ; preds = %entry
  %nulls_.i = getelementptr inbounds i8, ptr %.pre12, i64 24
  %2 = load ptr, ptr %nulls_.i, align 8
  %tobool.not.i = icmp eq ptr %2, null
  br i1 %tobool.not.i, label %if.end, label %if.end.i

if.end.i:                                         ; preds = %land.lhs.true
  %isIdentityMapping_.i = getelementptr inbounds i8, ptr %.pre12, i64 58
  %3 = load i8, ptr %isIdentityMapping_.i, align 2
  %4 = and i8 %3, 1
  %tobool2.not.i = icmp eq i8 %4, 0
  br i1 %tobool2.not.i, label %lor.lhs.false.i, label %if.then4.i

lor.lhs.false.i:                                  ; preds = %if.end.i
  %hasExtraNulls_.i = getelementptr inbounds i8, ptr %.pre12, i64 57
  %5 = load i8, ptr %hasExtraNulls_.i, align 1
  %6 = and i8 %5, 1
  %tobool3.not.i = icmp eq i8 %6, 0
  br i1 %tobool3.not.i, label %if.end6.i, label %if.then4.i

if.then4.i:                                       ; preds = %lor.lhs.false.i, %if.end.i
  %conv.i.i.i = sext i32 %row to i64
  %div2.i.i.i = lshr i64 %conv.i.i.i, 6
  %arrayidx.i.i.i = getelementptr inbounds i64, ptr %2, i64 %div2.i.i.i
  %7 = load i64, ptr %arrayidx.i.i.i, align 8
  %and.i.i.i = and i64 %conv.i.i.i, 63
  %shl.i.i.i = shl nuw i64 1, %and.i.i.i
  %and2.i.i.i = and i64 %7, %shl.i.i.i
  %tobool.i.not.i.i = icmp eq i64 %and2.i.i.i, 0
  br i1 %tobool.i.not.i.i, label %if.then, label %if.end

if.end6.i:                                        ; preds = %lor.lhs.false.i
  %isConstantMapping_.i = getelementptr inbounds i8, ptr %.pre12, i64 59
  %8 = load i8, ptr %isConstantMapping_.i, align 1
  %9 = and i8 %8, 1
  %tobool7.not.i = icmp eq i8 %9, 0
  br i1 %tobool7.not.i, label %_ZNK8facebook5velox13DecodedVector8isNullAtEi.exit, label %if.then8.i

if.then8.i:                                       ; preds = %if.end6.i
  %10 = load i64, ptr %2, align 8
  %and2.i.i2.i = and i64 %10, 1
  %tobool.i.not.i3.i = icmp eq i64 %and2.i.i2.i, 0
  br i1 %tobool.i.not.i3.i, label %if.then, label %if.end

_ZNK8facebook5velox13DecodedVector8isNullAtEi.exit: ; preds = %if.end6.i
  %indices_.i = getelementptr inbounds i8, ptr %.pre12, i64 8
  %11 = load ptr, ptr %indices_.i, align 8
  %idxprom.i = sext i32 %row to i64
  %arrayidx.i = getelementptr inbounds i32, ptr %11, i64 %idxprom.i
  %12 = load i32, ptr %arrayidx.i, align 4
  %conv.i.i4.i = sext i32 %12 to i64
  %div2.i.i5.i = lshr i64 %conv.i.i4.i, 6
  %arrayidx.i.i6.i = getelementptr inbounds i64, ptr %2, i64 %div2.i.i5.i
  %13 = load i64, ptr %arrayidx.i.i6.i, align 8
  %and.i.i7.i = and i64 %conv.i.i4.i, 63
  %shl.i.i8.i = shl nuw i64 1, %and.i.i7.i
  %and2.i.i9.i = and i64 %shl.i.i8.i, %13
  %tobool.i.not.i10.i = icmp eq i64 %and2.i.i9.i, 0
  br i1 %tobool.i.not.i10.i, label %if.then, label %if.end

if.then:                                          ; preds = %if.then8.i, %if.then4.i, %_ZNK8facebook5velox13DecodedVector8isNullAtEi.exit
  %rem.i.i = and i32 %row, 7
  %idxprom.i.i = zext nneg i32 %rem.i.i to i64
  %arrayidx.i.i = getelementptr inbounds [8 x i8], ptr @_ZN8facebook5velox4bitsL13kZeroBitmasksE, i64 0, i64 %idxprom.i.i
  %14 = load i8, ptr %arrayidx.i.i, align 1
  %div2.i.i = lshr i32 %row, 3
  %idxprom1.i.i = zext nneg i32 %div2.i.i to i64
  %arrayidx2.i.i = getelementptr inbounds i8, ptr %1, i64 %idxprom1.i.i
  %15 = load i8, ptr %arrayidx2.i.i, align 1
  %and3.i.i = and i8 %15, %14
  store i8 %and3.i.i, ptr %arrayidx2.i.i, align 1
  br label %return

if.end:                                           ; preds = %entry, %land.lhs.true, %if.then8.i, %if.then4.i, %_ZNK8facebook5velox13DecodedVector8isNullAtEi.exit
  %data_.i = getelementptr inbounds i8, ptr %.pre12, i64 16
  %16 = load ptr, ptr %data_.i, align 8
  %isIdentityMapping_.i.i = getelementptr inbounds i8, ptr %.pre12, i64 58
  %17 = load i8, ptr %isIdentityMapping_.i.i, align 2
  %18 = and i8 %17, 1
  %tobool.not.i.i = icmp eq i8 %18, 0
  br i1 %tobool.not.i.i, label %if.end.i.i, label %_ZNK8facebook5velox13DecodedVector7valueAtIiEET_i.exit

if.end.i.i:                                       ; preds = %if.end
  %isConstantMapping_.i.i = getelementptr inbounds i8, ptr %.pre12, i64 59
  %19 = load i8, ptr %isConstantMapping_.i.i, align 1
  %20 = and i8 %19, 1
  %tobool2.not.i.i = icmp eq i8 %20, 0
  br i1 %tobool2.not.i.i, label %if.end4.i.i, label %if.then3.i.i

if.then3.i.i:                                     ; preds = %if.end.i.i
  %constantIndex_.i.i = getelementptr inbounds i8, ptr %.pre12, i64 64
  %21 = load i32, ptr %constantIndex_.i.i, align 8
  br label %_ZNK8facebook5velox13DecodedVector7valueAtIiEET_i.exit

if.end4.i.i:                                      ; preds = %if.end.i.i
  %indices_.i.i = getelementptr inbounds i8, ptr %.pre12, i64 8
  %22 = load ptr, ptr %indices_.i.i, align 8
  %idxprom.i.i5 = sext i32 %row to i64
  %arrayidx.i.i6 = getelementptr inbounds i32, ptr %22, i64 %idxprom.i.i5
  %23 = load i32, ptr %arrayidx.i.i6, align 4
  br label %_ZNK8facebook5velox13DecodedVector7valueAtIiEET_i.exit

_ZNK8facebook5velox13DecodedVector7valueAtIiEET_i.exit: ; preds = %if.end, %if.then3.i.i, %if.end4.i.i
  %retval.0.i.i = phi i32 [ %21, %if.then3.i.i ], [ %23, %if.end4.i.i ], [ %row, %if.end ]
  %idxprom.i3 = sext i32 %retval.0.i.i to i64
  %arrayidx.i4 = getelementptr inbounds i32, ptr %16, i64 %idxprom.i3
  %24 = load i32, ptr %arrayidx.i4, align 4
  %25 = getelementptr inbounds i8, ptr %this, i64 16
  %26 = load ptr, ptr %25, align 8
  %27 = load ptr, ptr %26, align 8
  %idxprom = sext i32 %row to i64
  %arrayidx = getelementptr inbounds i32, ptr %27, i64 %idxprom
  store i32 %24, ptr %arrayidx, align 4
  %28 = getelementptr inbounds i8, ptr %this, i64 32
  %29 = load ptr, ptr %28, align 8
  %30 = load i32, ptr %29, align 4
  %31 = getelementptr inbounds i8, ptr %this, i64 24
  %32 = load ptr, ptr %31, align 8
  %33 = load ptr, ptr %32, align 8
  %arrayidx4 = getelementptr inbounds i32, ptr %33, i64 %idxprom
  store i32 %30, ptr %arrayidx4, align 4
  %34 = getelementptr inbounds i8, ptr %this, i64 40
  %35 = load ptr, ptr %34, align 8
  %36 = load ptr, ptr %35, align 8
  %37 = load ptr, ptr %28, align 8
  %38 = load i32, ptr %37, align 4
  %idx.ext = sext i32 %38 to i64
  %add.ptr = getelementptr inbounds i32, ptr %36, i64 %idx.ext
  %idx.ext7 = sext i32 %24 to i64
  %add.ptr8 = getelementptr inbounds i32, ptr %add.ptr, i64 %idx.ext7
  %cmp.not3.i.i.i = icmp eq i32 %24, 0
  br i1 %cmp.not3.i.i.i, label %_ZSt4fillIPiiEvT_S1_RKT0_.exit, label %for.body.i.i.i

for.body.i.i.i:                                   ; preds = %_ZNK8facebook5velox13DecodedVector7valueAtIiEET_i.exit, %for.body.i.i.i
  %__first.addr.04.i.i.i = phi ptr [ %incdec.ptr.i.i.i, %for.body.i.i.i ], [ %add.ptr, %_ZNK8facebook5velox13DecodedVector7valueAtIiEET_i.exit ]
  store i32 %row, ptr %__first.addr.04.i.i.i, align 4
  %incdec.ptr.i.i.i = getelementptr inbounds i8, ptr %__first.addr.04.i.i.i, i64 4
  %cmp.not.i.i.i = icmp eq ptr %incdec.ptr.i.i.i, %add.ptr8
  br i1 %cmp.not.i.i.i, label %_ZSt4fillIPiiEvT_S1_RKT0_.exit.loopexit, label %for.body.i.i.i, !llvm.loop !52

_ZSt4fillIPiiEvT_S1_RKT0_.exit.loopexit:          ; preds = %for.body.i.i.i
  %.pre13 = load ptr, ptr %28, align 8
  %.pre14 = load i32, ptr %.pre13, align 4
  br label %_ZSt4fillIPiiEvT_S1_RKT0_.exit

_ZSt4fillIPiiEvT_S1_RKT0_.exit:                   ; preds = %_ZSt4fillIPiiEvT_S1_RKT0_.exit.loopexit, %_ZNK8facebook5velox13DecodedVector7valueAtIiEET_i.exit
  %39 = phi i32 [ %.pre14, %_ZSt4fillIPiiEvT_S1_RKT0_.exit.loopexit ], [ %38, %_ZNK8facebook5velox13DecodedVector7valueAtIiEET_i.exit ]
  %40 = phi ptr [ %.pre13, %_ZSt4fillIPiiEvT_S1_RKT0_.exit.loopexit ], [ %37, %_ZNK8facebook5velox13DecodedVector7valueAtIiEET_i.exit ]
  %add = add nsw i32 %39, %24
  store i32 %add, ptr %40, align 4
  br label %return

return:                                           ; preds = %_ZSt4fillIPiiEvT_S1_RKT0_.exit, %if.then
  ret void
}